target datalayout = "e-m:e-p270:32:32-p271:32:32-p272:64:64-i64:64-i128:128-f80:128-n8:16:32:64-S128"
target triple = "x86_64-pc-linux-gnu"

@stderr = external global ptr, align 8
@.str.66 = private unnamed_addr constant [47 x i8] c"%s: error: unrecognized command-line flag: %s\0A\00", align 1

; Function Attrs: mustprogress nounwind uwtable
define noundef zeroext i1 @_ZN9benchmark27ReportUnrecognizedArgumentsEiPPc(i32 noundef %0, ptr noundef %1) #6 {
  %3 = alloca i32, align 4
  %4 = alloca ptr, align 8
  %5 = alloca i32, align 4
  store i32 %0, ptr %3, align 4, !tbaa !3
  store ptr %1, ptr %4, align 8, !tbaa !222
  call void @llvm.lifetime.start.p0(i64 4, ptr %5) #4
  store i32 1, ptr %5, align 4, !tbaa !3
  br label %6

6:                                                ; preds = %22, %2
  %7 = load i32, ptr %5, align 4, !tbaa !3
  %8 = load i32, ptr %3, align 4, !tbaa !3
  %9 = icmp slt i32 %7, %8
  br i1 %9, label %11, label %10

10:                                               ; preds = %6
  call void @llvm.lifetime.end.p0(i64 4, ptr %5) #4
  br label %25

11:                                               ; preds = %6
  %12 = load ptr, ptr @stderr, align 8, !tbaa !238
  %13 = load ptr, ptr %4, align 8, !tbaa !222
  %14 = getelementptr inbounds ptr, ptr %13, i64 0
  %15 = load ptr, ptr %14, align 8, !tbaa !15
  %16 = load ptr, ptr %4, align 8, !tbaa !222
  %17 = load i32, ptr %5, align 4, !tbaa !3
  %18 = sext i32 %17 to i64
  %19 = getelementptr inbounds ptr, ptr %16, i64 %18
  %20 = load ptr, ptr %19, align 8, !tbaa !15
  %21 = call i32 (ptr, ptr, ...) @fprintf(ptr noundef %12, ptr noundef @.str.66, ptr noundef %15, ptr noundef %20) #4
  br label %22

22:                                               ; preds = %11
  %23 = load i32, ptr %5, align 4, !tbaa !3
  %24 = add nsw i32 %23, 1
  store i32 %24, ptr %5, align 4, !tbaa !3
  br label %6, !llvm.loop !240

25:                                               ; preds = %10
  %26 = load i32, ptr %3, align 4, !tbaa !3
  %27 = icmp sgt i32 %26, 1
  ret i1 %27
}