; Function Attrs: mustprogress nofree nounwind uwtable
define noundef zeroext i1 @_ZN9benchmark27ReportUnrecognizedArgumentsEiPPc(i32 noundef %0, ptr noundef readonly captures(none) %1) local_unnamed_addr #16 {
  %3 = icmp sgt i32 %0, 1
  br i1 %3, label %.lr.ph.preheader, label %._crit_edge

.lr.ph.preheader:                                 ; preds = %2
  %wide.trip.count = zext nneg i32 %0 to i64
  br label %.lr.ph

._crit_edge:                                      ; preds = %.lr.ph, %2
  ret i1 %3

.lr.ph:                                           ; preds = %.lr.ph.preheader, %.lr.ph
  %indvars.iv = phi i64 [ 1, %.lr.ph.preheader ], [ %indvars.iv.next, %.lr.ph ]
  %4 = load ptr, ptr @stderr, align 8, !tbaa !259
  %5 = load ptr, ptr %1, align 8, !tbaa !257
  %6 = getelementptr inbounds nuw ptr, ptr %1, i64 %indvars.iv
  %7 = load ptr, ptr %6, align 8, !tbaa !257
  %8 = tail call i32 (ptr, ptr, ...) @fprintf(ptr noundef %4, ptr noundef nonnull @.str.66, ptr noundef %5, ptr noundef %7) #39
  %indvars.iv.next = add nuw nsw i64 %indvars.iv, 1
  %exitcond.not = icmp eq i64 %indvars.iv.next, %wide.trip.count
  br i1 %exitcond.not, label %._crit_edge, label %.lr.ph, !llvm.loop !261
}